; Function Attrs: mustprogress nounwind uwtable
define internal fastcc noundef zeroext i1 @_ZN5clang19RecursiveASTVisitorIZNK12_GLOBAL__N_130UncountedLambdaCapturesChecker12checkASTDeclEPKNS_19TranslationUnitDeclERNS_4ento15AnalysisManagerERNS6_11BugReporterEE12LocalVisitorE29TraverseOMPDeclareVariantAttrEPNS_21OMPDeclareVariantAttrE(ptr noundef nonnull align 1 dereferenceable(1) %0, ptr noundef readonly captures(none) %1) unnamed_addr #0 align 2 {
  %3 = getelementptr inbounds nuw i8, ptr %1, i64 40
  %4 = load ptr, ptr %3, align 8
  %5 = tail call fastcc noundef zeroext i1 @_ZN5clang19RecursiveASTVisitorIZNK12_GLOBAL__N_130UncountedLambdaCapturesChecker12checkASTDeclEPKNS_19TranslationUnitDeclERNS_4ento15AnalysisManagerERNS6_11BugReporterEE12LocalVisitorE12TraverseStmtEPNS_4StmtEPN4llvm15SmallVectorImplINSF_14PointerIntPairISE_Lj1EbNSF_21PointerLikeTypeTraitsISE_EENSF_18PointerIntPairInfoISE_Lj1ESJ_EEEEEE(ptr noundef nonnull align 1 dereferenceable(1) %0, ptr noundef %4, ptr noundef null)
  br i1 %5, label %6, label %.loopexit

6:                                                ; preds = %2
  %7 = getelementptr inbounds nuw i8, ptr %1, i64 64
  %8 = load ptr, ptr %7, align 8
  %9 = getelementptr inbounds nuw i8, ptr %1, i64 56
  %10 = load i32, ptr %9, align 8
  %11 = zext i32 %10 to i64
  %12 = getelementptr inbounds nuw ptr, ptr %8, i64 %11
  %.not21 = icmp eq i32 %10, 0
  br i1 %.not21, label %._crit_edge, label %.lr.ph

13:                                               ; preds = %.lr.ph
  %14 = getelementptr inbounds nuw i8, ptr %.01822, i64 8
  %.not = icmp eq ptr %14, %12
  br i1 %.not, label %._crit_edge, label %.lr.ph, !llvm.loop !106

.lr.ph:                                           ; preds = %6, %13
  %.01822 = phi ptr [ %14, %13 ], [ %8, %6 ]
  %15 = load ptr, ptr %.01822, align 8
  %16 = tail call fastcc noundef zeroext i1 @_ZN5clang19RecursiveASTVisitorIZNK12_GLOBAL__N_130UncountedLambdaCapturesChecker12checkASTDeclEPKNS_19TranslationUnitDeclERNS_4ento15AnalysisManagerERNS6_11BugReporterEE12LocalVisitorE12TraverseStmtEPNS_4StmtEPN4llvm15SmallVectorImplINSF_14PointerIntPairISE_Lj1EbNSF_21PointerLikeTypeTraitsISE_EENSF_18PointerIntPairInfoISE_Lj1ESJ_EEEEEE(ptr noundef nonnull align 1 dereferenceable(1) %0, ptr noundef %15, ptr noundef null)
  br i1 %16, label %13, label %.loopexit

._crit_edge:                                      ; preds = %13, %6
  %17 = getelementptr inbounds nuw i8, ptr %1, i64 80
  %18 = load ptr, ptr %17, align 8
  %19 = getelementptr inbounds nuw i8, ptr %1, i64 72
  %20 = load i32, ptr %19, align 8
  %21 = zext i32 %20 to i64
  %22 = getelementptr inbounds nuw ptr, ptr %18, i64 %21
  %.not1923 = icmp eq i32 %20, 0
  br i1 %.not1923, label %.loopexit, label %.lr.ph26

.lr.ph26:                                         ; preds = %._crit_edge, %.lr.ph26
  %.01724 = phi ptr [ %25, %.lr.ph26 ], [ %18, %._crit_edge ]
  %23 = load ptr, ptr %.01724, align 8
  %24 = tail call fastcc noundef zeroext i1 @_ZN5clang19RecursiveASTVisitorIZNK12_GLOBAL__N_130UncountedLambdaCapturesChecker12checkASTDeclEPKNS_19TranslationUnitDeclERNS_4ento15AnalysisManagerERNS6_11BugReporterEE12LocalVisitorE12TraverseStmtEPNS_4StmtEPN4llvm15SmallVectorImplINSF_14PointerIntPairISE_Lj1EbNSF_21PointerLikeTypeTraitsISE_EENSF_18PointerIntPairInfoISE_Lj1ESJ_EEEEEE(ptr noundef nonnull align 1 dereferenceable(1) %0, ptr noundef %23, ptr noundef null)
  %25 = getelementptr inbounds nuw i8, ptr %.01724, i64 8
  %.not19 = icmp ne ptr %25, %22
  %or.cond.not = select i1 %24, i1 %.not19, i1 false
  br i1 %or.cond.not, label %.lr.ph26, label %.loopexit, !llvm.loop !107

.loopexit:                                        ; preds = %.lr.ph, %.lr.ph26, %._crit_edge, %2
  %.0 = phi i1 [ false, %2 ], [ true, %._crit_edge ], [ %24, %.lr.ph26 ], [ false, %.lr.ph ]
  ret i1 %.0
}